; Function Attrs: nounwind uwtable
define zeroext i8 @l_Lake_Glob_matches(ptr noundef %0, ptr noundef %1) local_unnamed_addr #0 {
  %3 = ptrtoint ptr %1 to i64
  %4 = and i64 %3, 1
  %.not.i = icmp eq i64 %4, 0
  br i1 %.not.i, label %8, label %5

5:                                                ; preds = %2
  %6 = lshr i64 %3, 1
  %7 = trunc i64 %6 to i32
  br label %lean_obj_tag.exit

8:                                                ; preds = %2
  %9 = getelementptr i8, ptr %1, i64 4
  %.val.i = load i32, ptr %9, align 4
  %10 = lshr i32 %.val.i, 24
  br label %lean_obj_tag.exit

lean_obj_tag.exit:                                ; preds = %5, %8
  %.0.i = phi i32 [ %7, %5 ], [ %10, %8 ]
  %11 = getelementptr inbounds nuw i8, ptr %1, i64 8
  %12 = load ptr, ptr %11, align 8, !tbaa !4
  switch i32 %.0.i, label %21 [
    i32 0, label %13
    i32 1, label %15
  ]

13:                                               ; preds = %lean_obj_tag.exit
  %14 = tail call zeroext i8 @lean_name_eq(ptr noundef %12, ptr noundef %0) #4
  br label %23

15:                                               ; preds = %lean_obj_tag.exit
  %16 = tail call zeroext i8 @l_Lean_Name_isPrefixOf(ptr noundef %12, ptr noundef %0) #4
  %17 = icmp eq i8 %16, 0
  br i1 %17, label %23, label %18

18:                                               ; preds = %15
  %19 = tail call zeroext i8 @lean_name_eq(ptr noundef %12, ptr noundef %0) #4
  %20 = icmp eq i8 %19, 0
  %. = zext i1 %20 to i8
  br label %23

21:                                               ; preds = %lean_obj_tag.exit
  %22 = tail call zeroext i8 @l_Lean_Name_isPrefixOf(ptr noundef %12, ptr noundef %0) #4
  br label %23

23:                                               ; preds = %18, %15, %21, %13
  %.0 = phi i8 [ %22, %21 ], [ %14, %13 ], [ %., %18 ], [ 0, %15 ]
  ret i8 %.0
}